; Function Attrs: mustprogress nounwind uwtable
define void @_ZN3re29Prefilter4InfoD2Ev(ptr noundef nonnull align 8 dereferenceable(64) %this) unnamed_addr #3 align 2 personality ptr @__gxx_personality_v0 {
entry:
  %match_ = getelementptr inbounds i8, ptr %this, i64 56
  %0 = load ptr, ptr %match_, align 8
  %isnull = icmp eq ptr %0, null
  br i1 %isnull, label %delete.end, label %delete.notnull

delete.notnull:                                   ; preds = %entry
  tail call void @_ZN3re29PrefilterD1Ev(ptr noundef nonnull align 8 dereferenceable(52) %0) #16
  tail call void @_ZdlPv(ptr noundef nonnull %0) #18
  br label %delete.end

delete.end:                                       ; preds = %delete.notnull, %entry
  %_M_parent.i.i.i.i = getelementptr inbounds i8, ptr %this, i64 16
  %1 = load ptr, ptr %_M_parent.i.i.i.i, align 8
  invoke void @_ZNSt8_Rb_treeINSt7__cxx1112basic_stringIcSt11char_traitsIcESaIcEEES5_St9_IdentityIS5_EN3re29Prefilter13LengthThenLexESaIS5_EE8_M_eraseEPSt13_Rb_tree_nodeIS5_E(ptr noundef nonnull align 8 dereferenceable(48) %this, ptr noundef %1)
          to label %_ZNSt3setINSt7__cxx1112basic_stringIcSt11char_traitsIcESaIcEEEN3re29Prefilter13LengthThenLexESaIS5_EED2Ev.exit unwind label %terminate.lpad.i.i

terminate.lpad.i.i:                               ; preds = %delete.end
  %2 = landingpad { ptr, i32 }
          catch ptr null
  %3 = extractvalue { ptr, i32 } %2, 0
  tail call void @__clang_call_terminate(ptr %3) #21
  unreachable

_ZNSt3setINSt7__cxx1112basic_stringIcSt11char_traitsIcESaIcEEEN3re29Prefilter13LengthThenLexESaIS5_EED2Ev.exit: ; preds = %delete.end
  ret void
}